; Function Attrs: nofree norecurse nosync nounwind memory(argmem: readwrite) uwtable
define hidden range(i32 0, 2) i32 @avifDoubleToUnsignedFraction(double noundef %0, ptr nocapture noundef writeonly %1, ptr nocapture noundef %2) local_unnamed_addr #7 {
  %or.cond.i = fcmp ult double %0, 0.000000e+00
  %4 = fcmp ogt double %0, 0x41EFFFFFFFE00000
  %or.cond = or i1 %or.cond.i, %4
  br i1 %or.cond, label %avifDoubleToUnsignedFractionImpl.exit, label %5

5:                                                ; preds = %3
  %6 = fcmp ugt double %0, 1.000000e+00
  br i1 %6, label %7, label %12

7:                                                ; preds = %5
  %8 = fdiv double 0x41EFFFFFFFE00000, %0
  %9 = tail call double @llvm.floor.f64(double %8)
  %10 = fptoui double %9 to i64
  %11 = uitofp i64 %10 to double
  br label %12

12:                                               ; preds = %7, %5
  %13 = phi double [ %11, %7 ], [ 0x41EFFFFFFFE00000, %5 ]
  store i32 1, ptr %2, align 4
  %14 = tail call double @llvm.floor.f64(double %0)
  %15 = fsub double %0, %14
  br label %16

16:                                               ; preds = %32, %12
  %17 = phi i32 [ 1, %12 ], [ %33, %32 ]
  %.03341.i = phi i32 [ 0, %12 ], [ %28, %32 ]
  %.03440.i = phi double [ %15, %12 ], [ %34, %32 ]
  %.03539.i = phi i32 [ 0, %12 ], [ %35, %32 ]
  %18 = uitofp i32 %17 to double
  %19 = fmul double %0, %18
  %20 = tail call double @llvm.round.f64(double %19)
  %21 = fptoui double %20 to i32
  store i32 %21, ptr %1, align 4
  %22 = uitofp i32 %21 to double
  %23 = fcmp oeq double %19, %22
  br i1 %23, label %avifDoubleToUnsignedFractionImpl.exit, label %24

24:                                               ; preds = %16
  %25 = fdiv double 1.000000e+00, %.03440.i
  %26 = uitofp i32 %.03341.i to double
  %27 = tail call double @llvm.floor.f64(double %25)
  %28 = load i32, ptr %2, align 4
  %29 = uitofp i32 %28 to double
  %30 = tail call double @llvm.fmuladd.f64(double %27, double %29, double %26)
  %31 = fcmp ogt double %30, %13
  br i1 %31, label %avifDoubleToUnsignedFractionImpl.exit, label %32

32:                                               ; preds = %24
  %33 = fptoui double %30 to i32
  store i32 %33, ptr %2, align 4
  %34 = fsub double %25, %27
  %35 = add nuw nsw i32 %.03539.i, 1
  %exitcond.not.i = icmp eq i32 %35, 39
  br i1 %exitcond.not.i, label %36, label %16, !llvm.loop !6

36:                                               ; preds = %32
  %37 = uitofp i32 %33 to double
  %38 = fmul double %0, %37
  %39 = tail call double @llvm.round.f64(double %38)
  %40 = fptoui double %39 to i32
  store i32 %40, ptr %1, align 4
  br label %avifDoubleToUnsignedFractionImpl.exit

avifDoubleToUnsignedFractionImpl.exit:            ; preds = %16, %24, %3, %36
  %.0.i = phi i32 [ 1, %36 ], [ 0, %3 ], [ 1, %24 ], [ 1, %16 ]
  ret i32 %.0.i
}